target datalayout = "e-m:e-p270:32:32-p271:32:32-p272:64:64-i64:64-i128:128-f80:128-n8:16:32:64-S128"
target triple = "x86_64-pc-linux-gnu"

%struct.zmq_msg_t = type { [64 x i8] }

@_ZL12message_size = internal global i64 0, align 8
@_ZL13message_count = internal global i32 0, align 4
@.str.2 = private unnamed_addr constant [25 x i8] c"error in zmq_socket: %s\0A\00", align 1
@.str.3 = private unnamed_addr constant [18 x i8] c"inproc://thr_test\00", align 1
@.str.11 = private unnamed_addr constant [28 x i8] c"error in zmq_msg_close: %s\0A\00", align 1
@.str.13 = private unnamed_addr constant [24 x i8] c"error in zmq_close: %s\0A\00", align 1
@.str.17 = private unnamed_addr constant [26 x i8] c"error in zmq_connect: %s\0A\00", align 1
@.str.18 = private unnamed_addr constant [32 x i8] c"error in zmq_msg_init_size: %s\0A\00", align 1
@.str.19 = private unnamed_addr constant [26 x i8] c"error in zmq_sendmsg: %s\0A\00", align 1

; Function Attrs: mustprogress uwtable
define internal noundef ptr @_ZL6workerPv(ptr noundef %0) #6 {
  %2 = alloca ptr, align 8
  %3 = alloca ptr, align 8
  %4 = alloca i32, align 4
  %5 = alloca i32, align 4
  %6 = alloca %struct.zmq_msg_t, align 8
  store ptr %0, ptr %2, align 8, !tbaa !16
  call void @llvm.lifetime.start.p0(i64 8, ptr %3) #8
  call void @llvm.lifetime.start.p0(i64 4, ptr %4) #8
  call void @llvm.lifetime.start.p0(i64 4, ptr %5) #8
  call void @llvm.lifetime.start.p0(i64 64, ptr %6) #8
  %7 = load ptr, ptr %2, align 8, !tbaa !16
  %8 = call ptr @zmq_socket(ptr noundef %7, i32 noundef 8)
  store ptr %8, ptr %3, align 8, !tbaa !16
  %9 = load ptr, ptr %3, align 8, !tbaa !16
  %10 = icmp ne ptr %9, null
  br i1 %10, label %16, label %11

11:                                               ; preds = %1
  %12 = call ptr @__errno_location() #10
  %13 = load i32, ptr %12, align 4, !tbaa !4
  %14 = call ptr @zmq_strerror(i32 noundef %13)
  %15 = call i32 (ptr, ...) @printf(ptr noundef @.str.2, ptr noundef %14)
  call void @exit(i32 noundef 1) #11
  unreachable

16:                                               ; preds = %1
  %17 = load ptr, ptr %3, align 8, !tbaa !16
  %18 = call i32 @zmq_connect(ptr noundef %17, ptr noundef @.str.3)
  store i32 %18, ptr %4, align 4, !tbaa !4
  %19 = load i32, ptr %4, align 4, !tbaa !4
  %20 = icmp ne i32 %19, 0
  br i1 %20, label %21, label %26

21:                                               ; preds = %16
  %22 = call ptr @__errno_location() #10
  %23 = load i32, ptr %22, align 4, !tbaa !4
  %24 = call ptr @zmq_strerror(i32 noundef %23)
  %25 = call i32 (ptr, ...) @printf(ptr noundef @.str.17, ptr noundef %24)
  call void @exit(i32 noundef 1) #11
  unreachable

26:                                               ; preds = %16
  store i32 0, ptr %5, align 4, !tbaa !4
  br label %27

27:                                               ; preds = %61, %26
  %28 = load i32, ptr %5, align 4, !tbaa !4
  %29 = load i32, ptr @_ZL13message_count, align 4, !tbaa !4
  %30 = icmp ne i32 %28, %29
  br i1 %30, label %31, label %64

31:                                               ; preds = %27
  %32 = load i64, ptr @_ZL12message_size, align 8, !tbaa !14
  %33 = call i32 @zmq_msg_init_size(ptr noundef %6, i64 noundef %32)
  store i32 %33, ptr %4, align 4, !tbaa !4
  %34 = load i32, ptr %4, align 4, !tbaa !4
  %35 = icmp ne i32 %34, 0
  br i1 %35, label %36, label %41

36:                                               ; preds = %31
  %37 = call ptr @__errno_location() #10
  %38 = load i32, ptr %37, align 4, !tbaa !4
  %39 = call ptr @zmq_strerror(i32 noundef %38)
  %40 = call i32 (ptr, ...) @printf(ptr noundef @.str.18, ptr noundef %39)
  call void @exit(i32 noundef 1) #11
  unreachable

41:                                               ; preds = %31
  %42 = load ptr, ptr %3, align 8, !tbaa !16
  %43 = call i32 @zmq_sendmsg(ptr noundef %42, ptr noundef %6, i32 noundef 0)
  store i32 %43, ptr %4, align 4, !tbaa !4
  %44 = load i32, ptr %4, align 4, !tbaa !4
  %45 = icmp slt i32 %44, 0
  br i1 %45, label %46, label %51

46:                                               ; preds = %41
  %47 = call ptr @__errno_location() #10
  %48 = load i32, ptr %47, align 4, !tbaa !4
  %49 = call ptr @zmq_strerror(i32 noundef %48)
  %50 = call i32 (ptr, ...) @printf(ptr noundef @.str.19, ptr noundef %49)
  call void @exit(i32 noundef 1) #11
  unreachable

51:                                               ; preds = %41
  %52 = call i32 @zmq_msg_close(ptr noundef %6)
  store i32 %52, ptr %4, align 4, !tbaa !4
  %53 = load i32, ptr %4, align 4, !tbaa !4
  %54 = icmp ne i32 %53, 0
  br i1 %54, label %55, label %60

55:                                               ; preds = %51
  %56 = call ptr @__errno_location() #10
  %57 = load i32, ptr %56, align 4, !tbaa !4
  %58 = call ptr @zmq_strerror(i32 noundef %57)
  %59 = call i32 (ptr, ...) @printf(ptr noundef @.str.11, ptr noundef %58)
  call void @exit(i32 noundef 1) #11
  unreachable

60:                                               ; preds = %51
  br label %61

61:                                               ; preds = %60
  %62 = load i32, ptr %5, align 4, !tbaa !4
  %63 = add nsw i32 %62, 1
  store i32 %63, ptr %5, align 4, !tbaa !4
  br label %27, !llvm.loop !21

64:                                               ; preds = %27
  %65 = load ptr, ptr %3, align 8, !tbaa !16
  %66 = call i32 @zmq_close(ptr noundef %65)
  store i32 %66, ptr %4, align 4, !tbaa !4
  %67 = load i32, ptr %4, align 4, !tbaa !4
  %68 = icmp ne i32 %67, 0
  br i1 %68, label %69, label %74

69:                                               ; preds = %64
  %70 = call ptr @__errno_location() #10
  %71 = load i32, ptr %70, align 4, !tbaa !4
  %72 = call ptr @zmq_strerror(i32 noundef %71)
  %73 = call i32 (ptr, ...) @printf(ptr noundef @.str.13, ptr noundef %72)
  call void @exit(i32 noundef 1) #11
  unreachable

74:                                               ; preds = %64
  call void @llvm.lifetime.end.p0(i64 64, ptr %6) #8
  call void @llvm.lifetime.end.p0(i64 4, ptr %5) #8
  call void @llvm.lifetime.end.p0(i64 4, ptr %4) #8
  call void @llvm.lifetime.end.p0(i64 8, ptr %3) #8
  ret ptr null
}