; Function Attrs: mustprogress uwtable
define internal noalias noundef ptr @_ZL6workerPv(ptr noundef %0) #6 {
  %2 = alloca %struct.zmq_msg_t, align 8
  call void @llvm.lifetime.start.p0(i64 64, ptr nonnull %2) #11
  %3 = tail call ptr @zmq_socket(ptr noundef %0, i32 noundef 8)
  %.not = icmp eq ptr %3, null
  br i1 %.not, label %4, label %9

4:                                                ; preds = %1
  %5 = tail call ptr @__errno_location() #12
  %6 = load i32, ptr %5, align 4, !tbaa !11
  %7 = tail call ptr @zmq_strerror(i32 noundef %6)
  %8 = tail call i32 (ptr, ...) @printf(ptr noundef nonnull dereferenceable(1) @.str.2, ptr noundef %7)
  tail call void @exit(i32 noundef 1) #13
  unreachable

9:                                                ; preds = %1
  %10 = tail call i32 @zmq_connect(ptr noundef nonnull %3, ptr noundef nonnull @.str.3)
  %.not12 = icmp eq i32 %10, 0
  br i1 %.not12, label %.preheader, label %12

.preheader:                                       ; preds = %9
  %11 = load i32, ptr @_ZL13message_count, align 4, !tbaa !11
  %.not1317 = icmp eq i32 %11, 0
  br i1 %.not1317, label %._crit_edge, label %.lr.ph

12:                                               ; preds = %9
  %13 = tail call ptr @__errno_location() #12
  %14 = load i32, ptr %13, align 4, !tbaa !11
  %15 = tail call ptr @zmq_strerror(i32 noundef %14)
  %16 = tail call i32 (ptr, ...) @printf(ptr noundef nonnull dereferenceable(1) @.str.17, ptr noundef %15)
  tail call void @exit(i32 noundef 1) #13
  unreachable

17:                                               ; preds = %35
  %18 = add nuw nsw i32 %.018, 1
  %19 = load i32, ptr @_ZL13message_count, align 4, !tbaa !11
  %.not13 = icmp eq i32 %18, %19
  br i1 %.not13, label %._crit_edge, label %.lr.ph, !llvm.loop !15

.lr.ph:                                           ; preds = %.preheader, %17
  %.018 = phi i32 [ %18, %17 ], [ 0, %.preheader ]
  %20 = load i64, ptr @_ZL12message_size, align 8, !tbaa !9
  %21 = call i32 @zmq_msg_init_size(ptr noundef nonnull %2, i64 noundef %20)
  %.not15 = icmp eq i32 %21, 0
  br i1 %.not15, label %27, label %22

22:                                               ; preds = %.lr.ph
  %23 = tail call ptr @__errno_location() #12
  %24 = load i32, ptr %23, align 4, !tbaa !11
  %25 = call ptr @zmq_strerror(i32 noundef %24)
  %26 = call i32 (ptr, ...) @printf(ptr noundef nonnull dereferenceable(1) @.str.18, ptr noundef %25)
  call void @exit(i32 noundef 1) #13
  unreachable

27:                                               ; preds = %.lr.ph
  %28 = call i32 @zmq_sendmsg(ptr noundef nonnull %3, ptr noundef nonnull %2, i32 noundef 0)
  %29 = icmp slt i32 %28, 0
  br i1 %29, label %30, label %35

30:                                               ; preds = %27
  %31 = tail call ptr @__errno_location() #12
  %32 = load i32, ptr %31, align 4, !tbaa !11
  %33 = call ptr @zmq_strerror(i32 noundef %32)
  %34 = call i32 (ptr, ...) @printf(ptr noundef nonnull dereferenceable(1) @.str.19, ptr noundef %33)
  call void @exit(i32 noundef 1) #13
  unreachable

35:                                               ; preds = %27
  %36 = call i32 @zmq_msg_close(ptr noundef nonnull %2)
  %.not16 = icmp eq i32 %36, 0
  br i1 %.not16, label %17, label %37

37:                                               ; preds = %35
  %38 = tail call ptr @__errno_location() #12
  %39 = load i32, ptr %38, align 4, !tbaa !11
  %40 = call ptr @zmq_strerror(i32 noundef %39)
  %41 = call i32 (ptr, ...) @printf(ptr noundef nonnull dereferenceable(1) @.str.11, ptr noundef %40)
  call void @exit(i32 noundef 1) #13
  unreachable

._crit_edge:                                      ; preds = %17, %.preheader
  %42 = call i32 @zmq_close(ptr noundef nonnull %3)
  %.not14 = icmp eq i32 %42, 0
  br i1 %.not14, label %48, label %43

43:                                               ; preds = %._crit_edge
  %44 = tail call ptr @__errno_location() #12
  %45 = load i32, ptr %44, align 4, !tbaa !11
  %46 = call ptr @zmq_strerror(i32 noundef %45)
  %47 = call i32 (ptr, ...) @printf(ptr noundef nonnull dereferenceable(1) @.str.13, ptr noundef %46)
  call void @exit(i32 noundef 1) #13
  unreachable

48:                                               ; preds = %._crit_edge
  call void @llvm.lifetime.end.p0(i64 64, ptr nonnull %2) #11
  ret ptr null
}